; Function Attrs: mustprogress uwtable
define noundef i64 @_ZN9grpc_core11SliceBuffer13AppendIndexedENS_5SliceE(ptr noundef nonnull align 8 dereferenceable(232) %0, ptr noundef captures(none) %1) local_unnamed_addr #3 align 2 {
  %.sroa.6 = alloca [16 x i8], align 8
  %.sroa.05.0.copyload = load ptr, ptr %1, align 8, !tbaa !4
  %.sroa.2.0..sroa_idx = getelementptr inbounds nuw i8, ptr %1, i64 8
  %.sroa.2.0.copyload = load i64, ptr %.sroa.2.0..sroa_idx, align 8
  %.sroa.3.0..sroa_idx = getelementptr inbounds nuw i8, ptr %1, i64 16
  call void @llvm.lifetime.start.p0(i64 16, ptr nonnull %.sroa.6)
  call void @llvm.memcpy.p0.p0.i64(ptr noundef nonnull align 8 dereferenceable(16) %.sroa.6, ptr noundef nonnull align 8 dereferenceable(16) %.sroa.3.0..sroa_idx, i64 16, i1 false)
  tail call void @llvm.memset.p0.i64(ptr noundef nonnull align 8 dereferenceable(32) %1, i8 0, i64 32, i1 false), !noalias !40
  %3 = getelementptr inbounds nuw i8, ptr %0, i64 16
  %4 = load i64, ptr %3, align 8, !tbaa !13
  %5 = icmp eq i64 %4, 0
  br i1 %5, label %6, label %9

6:                                                ; preds = %2
  %7 = load ptr, ptr %0, align 8, !tbaa !25
  %8 = getelementptr inbounds nuw i8, ptr %0, i64 8
  store ptr %7, ptr %8, align 8, !tbaa !17
  br label %grpc_slice_buffer_add_indexed.exit

9:                                                ; preds = %2
  %10 = getelementptr inbounds nuw i8, ptr %0, i64 8
  %11 = load ptr, ptr %10, align 8, !tbaa !17
  %12 = load ptr, ptr %0, align 8, !tbaa !25
  %13 = ptrtoint ptr %11 to i64
  %14 = ptrtoint ptr %12 to i64
  %15 = sub i64 %13, %14
  %16 = ashr exact i64 %15, 5
  %17 = add i64 %16, %4
  %18 = getelementptr inbounds nuw i8, ptr %0, i64 24
  %19 = load i64, ptr %18, align 8, !tbaa !26
  %20 = icmp eq i64 %17, %19
  br i1 %20, label %21, label %grpc_slice_buffer_add_indexed.exit, !prof !27

21:                                               ; preds = %9
  tail call fastcc void @_ZL11do_embiggenP17grpc_slice_buffermm(ptr noundef nonnull %0, i64 noundef %17, i64 noundef %16)
  %.pre.i = load ptr, ptr %10, align 8, !tbaa !17
  br label %grpc_slice_buffer_add_indexed.exit

grpc_slice_buffer_add_indexed.exit:               ; preds = %6, %9, %21
  %22 = phi ptr [ %7, %6 ], [ %11, %9 ], [ %.pre.i, %21 ]
  %23 = getelementptr inbounds nuw %struct.grpc_slice, ptr %22, i64 %4
  store ptr %.sroa.05.0.copyload, ptr %23, align 8, !tbaa !4
  %.sroa.5.0..sroa_idx = getelementptr inbounds nuw i8, ptr %23, i64 8
  store i64 %.sroa.2.0.copyload, ptr %.sroa.5.0..sroa_idx, align 8
  %.sroa.6.0..sroa_idx = getelementptr inbounds nuw i8, ptr %23, i64 16
  call void @llvm.memcpy.p0.p0.i64(ptr noundef nonnull align 8 dereferenceable(16) %.sroa.6.0..sroa_idx, ptr noundef nonnull align 8 dereferenceable(16) %.sroa.6, i64 16, i1 false), !tbaa.struct !28
  %.not.i = icmp eq ptr %.sroa.05.0.copyload, null
  %24 = and i64 %.sroa.2.0.copyload, 255
  %25 = select i1 %.not.i, i64 %24, i64 %.sroa.2.0.copyload
  %26 = getelementptr inbounds nuw i8, ptr %0, i64 32
  %27 = load i64, ptr %26, align 8, !tbaa !20
  %28 = add i64 %27, %25
  store i64 %28, ptr %26, align 8, !tbaa !20
  %29 = add i64 %4, 1
  store i64 %29, ptr %3, align 8, !tbaa !13
  call void @llvm.lifetime.end.p0(i64 16, ptr nonnull %.sroa.6)
  ret i64 %4
}